target datalayout = "e-m:e-p270:32:32-p271:32:32-p272:64:64-i64:64-i128:128-f80:128-n8:16:32:64-S128"
target triple = "x86_64-pc-linux-gnu"

%struct._zend_output_globals = type { %struct._zend_stack, ptr, ptr, ptr, i32, i32 }
%struct._zend_stack = type { i32, i32, i32, ptr }

@output_globals = dso_local global %struct._zend_output_globals zeroinitializer, align 8
@php_output_direct = internal global ptr @php_output_stderr, align 8

; Function Attrs: nounwind uwtable
define dso_local i64 @php_output_write(ptr noundef %0, i64 noundef %1) #0 {
  %3 = alloca i64, align 8
  %4 = alloca ptr, align 8
  %5 = alloca i64, align 8
  store ptr %0, ptr %4, align 8, !tbaa !15
  store i64 %1, ptr %5, align 8, !tbaa !17
  %6 = load i32, ptr getelementptr inbounds nuw (%struct._zend_output_globals, ptr @output_globals, i32 0, i32 5), align 4, !tbaa !21
  %7 = and i32 %6, 1048576
  %8 = icmp ne i32 %7, 0
  br i1 %8, label %9, label %13

9:                                                ; preds = %2
  %10 = load ptr, ptr %4, align 8, !tbaa !15
  %11 = load i64, ptr %5, align 8, !tbaa !17
  call void @php_output_op(i32 noundef 0, ptr noundef %10, i64 noundef %11)
  %12 = load i64, ptr %5, align 8, !tbaa !17
  store i64 %12, ptr %3, align 8
  br label %23

13:                                               ; preds = %2
  %14 = load i32, ptr getelementptr inbounds nuw (%struct._zend_output_globals, ptr @output_globals, i32 0, i32 5), align 4, !tbaa !21
  %15 = and i32 %14, 2
  %16 = icmp ne i32 %15, 0
  br i1 %16, label %17, label %18

17:                                               ; preds = %13
  store i64 0, ptr %3, align 8
  br label %23

18:                                               ; preds = %13
  %19 = load ptr, ptr @php_output_direct, align 8, !tbaa !4
  %20 = load ptr, ptr %4, align 8, !tbaa !15
  %21 = load i64, ptr %5, align 8, !tbaa !17
  %22 = call i64 %19(ptr noundef %20, i64 noundef %21)
  store i64 %22, ptr %3, align 8
  br label %23

23:                                               ; preds = %18, %17, %9
  %24 = load i64, ptr %3, align 8
  ret i64 %24
}