; Function Attrs: nounwind uwtable
define dso_local i64 @php_output_write(ptr noundef %0, i64 noundef %1) local_unnamed_addr #0 {
  %3 = load i32, ptr getelementptr inbounds nuw (i8, ptr @output_globals, i64 52), align 4, !tbaa !11
  %4 = and i32 %3, 1048576
  %.not = icmp eq i32 %4, 0
  br i1 %.not, label %6, label %5

5:                                                ; preds = %2
  tail call fastcc void @php_output_op(i32 noundef 0, ptr noundef %0, i64 noundef %1)
  br label %11

6:                                                ; preds = %2
  %7 = and i32 %3, 2
  %.not5 = icmp eq i32 %7, 0
  br i1 %.not5, label %8, label %11

8:                                                ; preds = %6
  %9 = load ptr, ptr @php_output_direct, align 8, !tbaa !4
  %10 = tail call i64 %9(ptr noundef %0, i64 noundef %1) #22, !callees !48
  br label %11

11:                                               ; preds = %6, %8, %5
  %.0 = phi i64 [ %1, %5 ], [ %10, %8 ], [ 0, %6 ]
  ret i64 %.0
}